Certificate:
    Data:
        Version: 3 (0x2)
        Serial Number:
            99:f8:2a:2b:20:6a:f3:b8
    Signature Algorithm: sha256WithRSAEncryption
        Issuer: C=de, L=Falkenstein, O=ComCard GmbH, CN=ComCard GmbH Proxy CA/emailAddress=schmidt@comcard.de
        Validity
            Not Before: Jul 15 08:09:44 2022 GMT
            Not After : Sep 27 00:00:00 2025 GMT
        Subject: C=de, L=Falkenstein, O=ComCard GmbH, CN=ComCard GmbH Proxy CA/emailAddress=schmidt@comcard.de
        Subject Public Key Info:
            Public Key Algorithm: rsaEncryption
                Public-Key: (2048 bit)
                Modulus:
                    00:c8:c5:4a:fc:b7:11:5d:9b:7c:b2:0f:be:40:78:
                    3a:44:92:a3:37:1b:20:07:ef:a2:e4:cd:a5:e7:4a:
                    c1:48:39:d9:d1:6f:d5:6b:ba:dc:20:43:ae:82:dd:
                    a3:eb:bf:6f:53:0f:ac:4e:06:71:b5:64:84:bd:3a:
                    b9:2d:bc:c1:e5:62:86:82:bd:b3:07:3f:42:8d:51:
                    0d:f2:9e:24:fc:ab:f0:e2:d7:45:f7:d4:0c:4d:0d:
                    d1:cc:17:51:79:5e:47:c2:ed:9e:28:d4:18:d2:12:
                    f4:20:80:f6:f9:fb:03:73:5e:20:61:ad:5d:8e:40:
                    66:20:bc:a5:84:d1:46:87:72:24:75:1a:ab:a4:10:
                    f4:68:29:3c:4b:c4:92:ca:1e:88:45:c7:39:b7:44:
                    73:96:1b:e4:15:1f:34:21:94:bd:6a:64:9e:07:58:
                    fb:85:9c:71:3e:d9:c8:c4:53:46:3f:a1:c4:c3:65:
                    cf:66:e9:c8:ab:3c:70:c4:56:2c:5a:d8:31:9a:fd:
                    ff:bb:64:11:cc:4d:50:02:eb:7e:74:dd:43:b6:8a:
                    72:fe:ae:1c:16:88:8c:55:56:1d:d5:a9:74:0c:ca:
                    48:82:3c:1d:06:bb:06:d2:db:9d:51:fe:10:8a:79:
                    31:62:98:ad:f4:97:a4:66:74:8d:b4:06:4b:34:59:
                    d0:eb
                Exponent: 65537 (0x10001)
        X509v3 extensions:
            X509v3 Subject Key Identifier: 
                85:D2:3A:69:5B:2D:B3:BB:D5:E7:0F:30:1E:10:DD:DE:69:DA:43:3B
            X509v3 Basic Constraints: 
                CA:TRUE
            X509v3 Subject Alternative Name: 
                IP Address:127.0.0.1
    Signature Algorithm: sha256WithRSAEncryption
         4d:81:c2:22:7d:df:b8:0f:18:13:47:8f:2a:87:1b:5a:c3:c2:
         96:b3:cb:24:47:17:56:d5:c7:02:07:49:d9:e8:2c:08:a5:d0:
         0d:86:e2:9a:92:f7:f2:5f:90:9d:af:9a:b6:a5:8d:a4:9c:08:
         0d:a8:6b:09:4b:7a:c2:d6:a8:41:38:de:66:91:5b:cb:a3:3c:
         a6:bb:6f:91:ae:b9:81:1d:3c:a7:25:a4:ed:12:7e:fa:ab:c5:
         c9:68:23:06:4a:37:73:de:7e:ca:f2:58:83:6f:6a:70:2e:67:
         21:28:90:88:16:86:f9:82:e1:40:bd:07:32:ca:38:9d:82:e3:
         4d:78:65:eb:8c:2e:f2:f3:44:33:30:18:99:61:0e:64:2f:5b:
         66:26:0d:06:c1:49:e7:58:75:fa:53:0b:52:18:d0:ea:a8:f5:
         9b:b7:31:f6:74:65:ef:2f:11:37:78:07:14:7c:e1:d8:6e:5a:
         b2:be:40:b6:21:26:64:04:7d:b1:2b:42:24:05:f5:f8:5d:a9:
         d4:01:cd:ab:81:00:b4:86:5f:88:55:eb:54:87:b0:94:c6:c2:
         ae:81:87:ce:5c:1c:cd:0d:f9:a4:b1:17:44:04:a5:d3:54:c9:
         9a:87:25:e8:12:eb:4a:4f:1b:99:23:99:1f:8c:af:33:bd:5a:
         7a:30:2d:6d
-----BEGIN CERTIFICATE-----
MIIDvTCCAqWgAwIBAgIJAJn4KisgavO4MA0GCSqGSIb3DQEBCwUAMH0xCzAJBgNV
BAYTAmRlMRQwEgYDVQQHDAtGYWxrZW5zdGVpbjEVMBMGA1UECgwMQ29tQ2FyZCBH
bWJIMR4wHAYDVQQDDBVDb21DYXJkIEdtYkggUHJveHkgQ0ExITAfBgkqhkiG9w0B
CQEWEnNjaG1pZHRAY29tY2FyZC5kZTAeFw0yMjA3MTUwODA5NDRaFw0yNTA5Mjcw
MDAwMDBaMH0xCzAJBgNVBAYTAmRlMRQwEgYDVQQHDAtGYWxrZW5zdGVpbjEVMBMG
A1UECgwMQ29tQ2FyZCBHbWJIMR4wHAYDVQQDDBVDb21DYXJkIEdtYkggUHJveHkg
Q0ExITAfBgkqhkiG9w0BCQEWEnNjaG1pZHRAY29tY2FyZC5kZTCCASIwDQYJKoZI
hvcNAQEBBQADggEPADCCAQoCggEBAMjFSvy3EV2bfLIPvkB4OkSSozcbIAfvouTN
pedKwUg52dFv1Wu63CBDroLdo+u/b1MPrE4GcbVkhL06uS28weVihoK9swc/Qo1R
DfKeJPyr8OLXRffUDE0N0cwXUXleR8LtnijUGNIS9CCA9vn7A3NeIGGtXY5AZiC8
pYTRRodyJHUaq6QQ9GgpPEvEksoeiEXHObdEc5Yb5BUfNCGUvWpkngdY+4WccT7Z
yMRTRj+hxMNlz2bpyKs8cMRWLFrYMZr9/7tkEcxNUALrfnTdQ7aKcv6uHBaIjFVW
HdWpdAzKSII8HQa7BtLbnVH+EIp5MWKYrfSXpGZ0jbQGSzRZ0OsCAwEAAaNAMD4w
HQYDVR0OBBYEFIXSOmlbLbO71ecPMB4Q3d5p2kM7MAwGA1UdEwQFMAMBAf8wDwYD
VR0RBAgwBocEfwAAATANBgkqhkiG9w0BAQsFAAOCAQEATYHCIn3fuA8YE0ePKocb
WsPClrPLJEcXVtXHAgdJ2egsCKXQDYbimpL38l+Qna+atqWNpJwIDahrCUt6wtao
QTjeZpFby6M8prtvka65gR08pyWk7RJ++qvFyWgjBko3c95+yvJYg29qcC5nISiQ
iBaG+YLhQL0HMso4nYLjTXhl64wu8vNEMzAYmWEOZC9bZiYNBsFJ51h1+lMLUhjQ
6qj1m7cx9nRl7y8RN3gHFHzh2G5asr5AtiEmZAR9sStCJAX1+F2p1AHNq4EAtIZf
iFXrVIewlMbCroGHzlwczQ35pLEXRASl01TJmocl6BLrSk8bmSOZH4yvM71aejAt
bQ==
-----END CERTIFICATE-----
