Certificate:
    Data:
        Version: 3 (0x2)
        Serial Number:
            ca:a3:e3:41:be:8d:ab:e0
    Signature Algorithm: sha256WithRSAEncryption
        Issuer: C=de, L=Falkenstein, O=ComCard GmbH, CN=ComCard GmbH Proxy CA/emailAddress=schmidt@comcard.de
        Validity
            Not Before: May 21 04:05:13 2019 GMT
            Not After : Aug  3 00:00:00 2022 GMT
        Subject: C=de, L=Falkenstein, O=ComCard GmbH, CN=ComCard GmbH Proxy CA/emailAddress=schmidt@comcard.de
        Subject Public Key Info:
            Public Key Algorithm: rsaEncryption
                Public-Key: (1024 bit)
                Modulus:
                    00:a8:48:1a:38:07:76:80:46:96:f0:00:38:01:7c:
                    79:a0:00:4c:66:72:d0:02:90:24:ef:22:61:6f:c0:
                    79:1c:9c:a0:ab:0b:18:c6:b9:80:25:0d:92:db:0b:
                    52:90:b9:f3:3e:c4:c3:59:7b:16:96:cd:13:1a:e5:
                    a9:d5:75:54:79:b0:57:70:81:48:0f:e3:a2:ab:fe:
                    43:a1:5b:d9:13:d7:09:6a:0c:fb:59:1c:23:bf:2f:
                    df:89:cb:b2:fa:5d:0a:85:cc:0a:fc:df:ca:a1:5d:
                    cf:e7:70:37:7a:a8:b0:dd:d7:4e:09:4d:a1:f6:be:
                    cb:4b:35:38:85:4f:d9:ca:31
                Exponent: 65537 (0x10001)
        X509v3 extensions:
            X509v3 Subject Key Identifier:
                94:B8:BB:44:E2:F1:A3:BB:F3:75:06:3A:A0:F7:CA:C2:07:6A:93:58
            X509v3 Basic Constraints:
                CA:TRUE
            X509v3 Subject Alternative Name:
                IP Address:127.0.0.1
    Signature Algorithm: sha256WithRSAEncryption
         2f:1f:f6:78:fe:70:f4:43:33:dd:02:a6:8a:38:b6:28:08:30:
         d2:22:87:a7:a6:a3:ae:54:ce:c6:3f:2f:be:46:0f:65:90:4e:
         b0:8f:82:66:c0:50:f0:e3:3b:51:0d:c2:37:74:97:6d:c7:2b:
         60:42:49:cf:55:83:31:43:99:b4:0e:5f:2a:16:f4:8b:da:60:
         8d:b5:15:da:01:f6:aa:fe:8e:e1:15:6a:ce:c5:40:b8:28:51:
         ef:bb:8c:ef:84:f0:79:e2:90:c8:f9:48:6d:4b:4c:2a:7c:05:
         53:a4:7d:41:b9:1b:70:66:5a:60:70:80:4f:54:83:6d:41:bb:
         77:87
-----BEGIN CERTIFICATE-----
MIICuDCCAiGgAwIBAgIJAMqj40G+javgMA0GCSqGSIb3DQEBCwUAMH0xCzAJBgNV
BAYTAmRlMRQwEgYDVQQHDAtGYWxrZW5zdGVpbjEVMBMGA1UECgwMQ29tQ2FyZCBH
bWJIMR4wHAYDVQQDDBVDb21DYXJkIEdtYkggUHJveHkgQ0ExITAfBgkqhkiG9w0B
CQEWEnNjaG1pZHRAY29tY2FyZC5kZTAeFw0xOTA1MjEwNDA1MTNaFw0yMjA4MDMw
MDAwMDBaMH0xCzAJBgNVBAYTAmRlMRQwEgYDVQQHDAtGYWxrZW5zdGVpbjEVMBMG
A1UECgwMQ29tQ2FyZCBHbWJIMR4wHAYDVQQDDBVDb21DYXJkIEdtYkggUHJveHkg
Q0ExITAfBgkqhkiG9w0BCQEWEnNjaG1pZHRAY29tY2FyZC5kZTCBnzANBgkqhkiG
9w0BAQEFAAOBjQAwgYkCgYEAqEgaOAd2gEaW8AA4AXx5oABMZnLQApAk7yJhb8B5
HJygqwsYxrmAJQ2S2wtSkLnzPsTDWXsWls0TGuWp1XVUebBXcIFID+Oiq/5DoVvZ
E9cJagz7WRwjvy/ficuy+l0KhcwK/N/KoV3P53A3eqiw3ddOCU2h9r7LSzU4hU/Z
yjECAwEAAaNAMD4wHQYDVR0OBBYEFJS4u0Ti8aO783UGOqD3ysIHapNYMAwGA1Ud
EwQFMAMBAf8wDwYDVR0RBAgwBocEfwAAATANBgkqhkiG9w0BAQsFAAOBgQAvH/Z4
/nD0QzPdAqaKOLYoCDDSIoenpqOuVM7GPy++Rg9lkE6wj4JmwFDw4ztRDcI3dJdt
xytgQknPVYMxQ5m0Dl8qFvSL2mCNtRXaAfaq/o7hFWrOxUC4KFHvu4zvhPB54pDI
+UhtS0wqfAVTpH1BuRtwZlpgcIBPVINtQbt3hw==
-----END CERTIFICATE-----
